target datalayout = "e-m:e-p270:32:32-p271:32:32-p272:64:64-i64:64-i128:128-f80:128-n8:16:32:64-S128"
target triple = "x86_64-pc-linux-gnu"

%struct._urb_info_t = type { i16, i16, i8, i32, i8, i32, i8, i8, i8, i32, ptr, ptr }
%struct._usb_conv_info_t = type { i8, i16, i16, i16, i16, i8, i16, i32, i16, i8, ptr, ptr, i32, ptr }

@hf_as_ep_gen_bmattributes = internal global i32 0, align 4
@hf_as_ep_gen_controls = internal global i32 0, align 4
@hf_as_ep_gen_lockdelayunits = internal global i32 0, align 4
@hf_as_ep_gen_lockdelay = internal global i32 0, align 4
@ett_as_ep_gen_attributes = internal global i32 0, align 4
@ett_as_ep_gen_controls = internal global i32 0, align 4
@dissect_as_ep_general_body.v1_attributes = internal constant [5 x ptr] [ptr @hf_as_ep_gen_bmattributes_d0, ptr @hf_as_ep_gen_bmattributes_d1, ptr @hf_as_ep_gen_bmattributes_rsv, ptr @hf_as_ep_gen_bmattributes_d7, ptr null], align 16
@dissect_as_ep_general_body.v2_attributes = internal constant [2 x ptr] [ptr @hf_as_ep_gen_bmattributes_d7, ptr null], align 16
@dissect_as_ep_general_body.controls = internal constant [5 x ptr] [ptr @hf_as_ep_gen_controls_pitch, ptr @hf_as_ep_gen_controls_data_overrun, ptr @hf_as_ep_gen_controls_data_underrun, ptr @hf_as_ep_gen_controls_rsv, ptr null], align 16

; Function Attrs: null_pointer_is_valid sspstrong uwtable
define internal i32 @dissect_as_ep_general_body(ptr noundef %0, i32 noundef %1, ptr noundef %2, ptr noundef %3, ptr noundef %4) #1 {
  %6 = alloca i32, align 4
  %7 = alloca ptr, align 8
  %8 = alloca i32, align 4
  %9 = alloca ptr, align 8
  %10 = alloca ptr, align 8
  %11 = alloca ptr, align 8
  %12 = alloca i32, align 4
  %13 = alloca i32, align 4
  store ptr %0, ptr %7, align 8
  store i32 %1, ptr %8, align 4
  store ptr %2, ptr %9, align 8
  store ptr %3, ptr %10, align 8
  store ptr %4, ptr %11, align 8
  call void @llvm.lifetime.start.p0(i64 4, ptr %12) #11
  %14 = load i32, ptr %8, align 4
  store i32 %14, ptr %12, align 4
  %15 = load ptr, ptr %11, align 8
  %16 = getelementptr inbounds nuw %struct._urb_info_t, ptr %15, i32 0, i32 11
  %17 = load ptr, ptr %16, align 8
  %18 = getelementptr inbounds nuw %struct._usb_conv_info_t, ptr %17, i32 0, i32 4
  %19 = load i16, ptr %18, align 8
  %20 = zext i16 %19 to i32
  %21 = icmp eq i32 %20, 0
  br i1 %21, label %31, label %22

22:                                               ; preds = %5
  %23 = load ptr, ptr %11, align 8
  %24 = getelementptr inbounds nuw %struct._urb_info_t, ptr %23, i32 0, i32 11
  %25 = load ptr, ptr %24, align 8
  %26 = getelementptr inbounds nuw %struct._usb_conv_info_t, ptr %25, i32 0, i32 4
  %27 = load i16, ptr %26, align 8
  %28 = zext i16 %27 to i32
  %29 = icmp eq i32 %28, 32
  br i1 %29, label %31, label %30

30:                                               ; preds = %22
  store i32 0, ptr %6, align 4
  store i32 1, ptr %13, align 4
  br label %92

31:                                               ; preds = %22, %5
  %32 = load ptr, ptr %11, align 8
  %33 = getelementptr inbounds nuw %struct._urb_info_t, ptr %32, i32 0, i32 11
  %34 = load ptr, ptr %33, align 8
  %35 = getelementptr inbounds nuw %struct._usb_conv_info_t, ptr %34, i32 0, i32 4
  %36 = load i16, ptr %35, align 8
  %37 = zext i16 %36 to i32
  %38 = icmp eq i32 %37, 0
  br i1 %38, label %39, label %48

39:                                               ; preds = %31
  %40 = load ptr, ptr %10, align 8
  %41 = load ptr, ptr %7, align 8
  %42 = load i32, ptr %8, align 4
  %43 = load i32, ptr @hf_as_ep_gen_bmattributes, align 4
  %44 = load i32, ptr @ett_as_ep_gen_attributes, align 4
  %45 = call ptr @proto_tree_add_bitmask(ptr noundef %40, ptr noundef %41, i32 noundef %42, i32 noundef %43, i32 noundef %44, ptr noundef @dissect_as_ep_general_body.v1_attributes, i32 noundef -2147483648)
  %46 = load i32, ptr %8, align 4
  %47 = add i32 %46, 1
  store i32 %47, ptr %8, align 4
  br label %74

48:                                               ; preds = %31
  %49 = load ptr, ptr %11, align 8
  %50 = getelementptr inbounds nuw %struct._urb_info_t, ptr %49, i32 0, i32 11
  %51 = load ptr, ptr %50, align 8
  %52 = getelementptr inbounds nuw %struct._usb_conv_info_t, ptr %51, i32 0, i32 4
  %53 = load i16, ptr %52, align 8
  %54 = zext i16 %53 to i32
  %55 = icmp eq i32 %54, 32
  br i1 %55, label %56, label %73

56:                                               ; preds = %48
  %57 = load ptr, ptr %10, align 8
  %58 = load ptr, ptr %7, align 8
  %59 = load i32, ptr %8, align 4
  %60 = load i32, ptr @hf_as_ep_gen_bmattributes, align 4
  %61 = load i32, ptr @ett_as_ep_gen_attributes, align 4
  %62 = call ptr @proto_tree_add_bitmask(ptr noundef %57, ptr noundef %58, i32 noundef %59, i32 noundef %60, i32 noundef %61, ptr noundef @dissect_as_ep_general_body.v2_attributes, i32 noundef -2147483648)
  %63 = load i32, ptr %8, align 4
  %64 = add i32 %63, 1
  store i32 %64, ptr %8, align 4
  %65 = load ptr, ptr %10, align 8
  %66 = load ptr, ptr %7, align 8
  %67 = load i32, ptr %8, align 4
  %68 = load i32, ptr @hf_as_ep_gen_controls, align 4
  %69 = load i32, ptr @ett_as_ep_gen_controls, align 4
  %70 = call ptr @proto_tree_add_bitmask(ptr noundef %65, ptr noundef %66, i32 noundef %67, i32 noundef %68, i32 noundef %69, ptr noundef @dissect_as_ep_general_body.controls, i32 noundef -2147483648)
  %71 = load i32, ptr %8, align 4
  %72 = add i32 %71, 1
  store i32 %72, ptr %8, align 4
  br label %73

73:                                               ; preds = %56, %48
  br label %74

74:                                               ; preds = %73, %39
  %75 = load ptr, ptr %10, align 8
  %76 = load i32, ptr @hf_as_ep_gen_lockdelayunits, align 4
  %77 = load ptr, ptr %7, align 8
  %78 = load i32, ptr %8, align 4
  %79 = call ptr @proto_tree_add_item(ptr noundef %75, i32 noundef %76, ptr noundef %77, i32 noundef %78, i32 noundef 1, i32 noundef -2147483648)
  %80 = load i32, ptr %8, align 4
  %81 = add i32 %80, 1
  store i32 %81, ptr %8, align 4
  %82 = load ptr, ptr %10, align 8
  %83 = load i32, ptr @hf_as_ep_gen_lockdelay, align 4
  %84 = load ptr, ptr %7, align 8
  %85 = load i32, ptr %8, align 4
  %86 = call ptr @proto_tree_add_item(ptr noundef %82, i32 noundef %83, ptr noundef %84, i32 noundef %85, i32 noundef 2, i32 noundef -2147483648)
  %87 = load i32, ptr %8, align 4
  %88 = add i32 %87, 2
  store i32 %88, ptr %8, align 4
  %89 = load i32, ptr %8, align 4
  %90 = load i32, ptr %12, align 4
  %91 = sub i32 %89, %90
  store i32 %91, ptr %6, align 4
  store i32 1, ptr %13, align 4
  br label %92

92:                                               ; preds = %74, %30
  call void @llvm.lifetime.end.p0(i64 4, ptr %12) #11
  %93 = load i32, ptr %6, align 4
  ret i32 %93
}