; Function Attrs: null_pointer_is_valid sspstrong uwtable
define internal fastcc range(i32 0, 6) i32 @dissect_as_ep_general_body(ptr noundef %0, ptr noundef %1, i16 %.40.val.8.val) unnamed_addr #1 {
  switch i16 %.40.val.8.val, label %20 [
    i16 0, label %3
    i16 32, label %7
  ]

3:                                                ; preds = %2
  %4 = load i32, ptr @hf_as_ep_gen_bmattributes, align 4
  %5 = load i32, ptr @ett_as_ep_gen_attributes, align 4
  %6 = tail call ptr @proto_tree_add_bitmask(ptr noundef %1, ptr noundef %0, i32 noundef 3, i32 noundef %4, i32 noundef %5, ptr noundef nonnull @dissect_as_ep_general_body.v1_attributes, i32 noundef -2147483648)
  br label %14

7:                                                ; preds = %2
  %8 = load i32, ptr @hf_as_ep_gen_bmattributes, align 4
  %9 = load i32, ptr @ett_as_ep_gen_attributes, align 4
  %10 = tail call ptr @proto_tree_add_bitmask(ptr noundef %1, ptr noundef %0, i32 noundef 3, i32 noundef %8, i32 noundef %9, ptr noundef nonnull @dissect_as_ep_general_body.v2_attributes, i32 noundef -2147483648)
  %11 = load i32, ptr @hf_as_ep_gen_controls, align 4
  %12 = load i32, ptr @ett_as_ep_gen_controls, align 4
  %13 = tail call ptr @proto_tree_add_bitmask(ptr noundef %1, ptr noundef %0, i32 noundef 4, i32 noundef %11, i32 noundef %12, ptr noundef nonnull @dissect_as_ep_general_body.controls, i32 noundef -2147483648)
  br label %14

14:                                               ; preds = %7, %3
  %.027 = phi i32 [ 4, %3 ], [ 5, %7 ]
  %15 = load i32, ptr @hf_as_ep_gen_lockdelayunits, align 4
  %16 = tail call ptr @proto_tree_add_item(ptr noundef %1, i32 noundef %15, ptr noundef %0, i32 noundef %.027, i32 noundef 1, i32 noundef -2147483648)
  %17 = add nuw nsw i32 %.027, 1
  %18 = load i32, ptr @hf_as_ep_gen_lockdelay, align 4
  %19 = tail call ptr @proto_tree_add_item(ptr noundef %1, i32 noundef %18, ptr noundef %0, i32 noundef %17, i32 noundef 2, i32 noundef -2147483648)
  br label %20

20:                                               ; preds = %2, %14
  %.0 = phi i32 [ %.027, %14 ], [ 0, %2 ]
  ret i32 %.0
}